target datalayout = "e-m:e-p270:32:32-p271:32:32-p272:64:64-i64:64-i128:128-f80:128-n8:16:32:64-S128"
target triple = "x86_64-pc-linux-gnu"

%struct.AVStream = type { ptr, i32, i32, ptr, ptr, %struct.AVRational, i64, i64, i64, i32, i32, %struct.AVRational, ptr, %struct.AVRational, %struct.AVPacket, i32, %struct.AVRational, i32 }
%struct.AVPacket = type { ptr, i64, i64, ptr, i32, i32, i32, ptr, i32, i64, i64, ptr, ptr, %struct.AVRational }
%struct.AVRational = type { i32, i32 }
%struct.AVCodecParameters = type { i32, i32, i32, ptr, i32, ptr, i32, i32, i64, i32, i32, i32, i32, i32, i32, %struct.AVRational, %struct.AVRational, i32, i32, i32, i32, i32, i32, i32, %struct.AVChannelLayout, i32, i32, i32, i32, i32, i32 }
%struct.AVChannelLayout = type { i32, i32, %union.anon, ptr }
%union.anon = type { i64 }
%struct.MpegTSContext = type { ptr, ptr, i32, i64, i32, i32, i32, i64, i64, i32, ptr, i64, i32, i32, i32, i32, i32, i32, i32, i32, i32, ptr, [8192 x i8], [8192 x ptr], i32, ptr, [32 x ptr] }
%struct.MpegTSFilter = type { i32, i32, i32, i64, i32, i32, %union.anon.0 }
%union.anon.0 = type { %struct.MpegTSSectionFilter }
%struct.MpegTSSectionFilter = type { i32, i32, i32, i32, i32, ptr, i8, ptr, ptr }
%struct.SectionHeader = type { i8, i16, i8, i8, i8, i8 }

@.str.57 = private unnamed_addr constant [27 x i8] c"EIT: tid received = %.02x\0A\00", align 1
@.str.58 = private unnamed_addr constant [31 x i8] c"Scrambled EIT table received.\0A\00", align 1

; Function Attrs: alwaysinline nounwind willreturn memory(none) uwtable
define internal zeroext i16 @av_bswap16(i16 noundef zeroext %0) #7 {
  %2 = alloca i16, align 2
  store i16 %0, ptr %2, align 2, !tbaa !207
  %3 = load i16, ptr %2, align 2, !tbaa !207
  %4 = zext i16 %3 to i32
  %5 = ashr i32 %4, 8
  %6 = load i16, ptr %2, align 2, !tbaa !207
  %7 = zext i16 %6 to i32
  %8 = shl i32 %7, 8
  %9 = or i32 %5, %8
  %10 = trunc i32 %9 to i16
  store i16 %10, ptr %2, align 2, !tbaa !207
  %11 = load i16, ptr %2, align 2, !tbaa !207
  ret i16 %11
}

; Function Attrs: inlinehint nounwind uwtable
define internal i32 @get16(ptr noundef %0, ptr noundef %1) #3 {
  %3 = alloca i32, align 4
  %4 = alloca ptr, align 8
  %5 = alloca ptr, align 8
  %6 = alloca ptr, align 8
  %7 = alloca i32, align 4
  %8 = alloca i32, align 4
  store ptr %0, ptr %4, align 8, !tbaa !13
  store ptr %1, ptr %5, align 8, !tbaa !16
  call void @llvm.lifetime.start.p0(i64 8, ptr %6) #12
  call void @llvm.lifetime.start.p0(i64 4, ptr %7) #12
  %9 = load ptr, ptr %4, align 8, !tbaa !13
  %10 = load ptr, ptr %9, align 8, !tbaa !16
  store ptr %10, ptr %6, align 8, !tbaa !16
  %11 = load ptr, ptr %5, align 8, !tbaa !16
  %12 = load ptr, ptr %6, align 8, !tbaa !16
  %13 = ptrtoint ptr %11 to i64
  %14 = ptrtoint ptr %12 to i64
  %15 = sub i64 %13, %14
  %16 = icmp sge i64 1, %15
  br i1 %16, label %17, label %18

17:                                               ; preds = %2
  store i32 -1094995529, ptr %3, align 4
  store i32 1, ptr %8, align 4
  br label %28

18:                                               ; preds = %2
  %19 = load ptr, ptr %6, align 8, !tbaa !16
  %20 = load i16, ptr %19, align 1, !tbaa !66
  %21 = call zeroext i16 @av_bswap16(i16 noundef zeroext %20) #14
  %22 = zext i16 %21 to i32
  store i32 %22, ptr %7, align 4, !tbaa !11
  %23 = load ptr, ptr %6, align 8, !tbaa !16
  %24 = getelementptr inbounds i8, ptr %23, i64 2
  store ptr %24, ptr %6, align 8, !tbaa !16
  %25 = load ptr, ptr %6, align 8, !tbaa !16
  %26 = load ptr, ptr %4, align 8, !tbaa !13
  store ptr %25, ptr %26, align 8, !tbaa !16
  %27 = load i32, ptr %7, align 4, !tbaa !11
  store i32 %27, ptr %3, align 4
  store i32 1, ptr %8, align 4
  br label %28

28:                                               ; preds = %18, %17
  call void @llvm.lifetime.end.p0(i64 4, ptr %7) #12
  call void @llvm.lifetime.end.p0(i64 8, ptr %6) #12
  %29 = load i32, ptr %3, align 4
  ret i32 %29
}

; Function Attrs: inlinehint nounwind uwtable
define internal i32 @get8(ptr noundef %0, ptr noundef %1) #3 {
  %3 = alloca i32, align 4
  %4 = alloca ptr, align 8
  %5 = alloca ptr, align 8
  %6 = alloca ptr, align 8
  %7 = alloca i32, align 4
  %8 = alloca i32, align 4
  store ptr %0, ptr %4, align 8, !tbaa !13
  store ptr %1, ptr %5, align 8, !tbaa !16
  call void @llvm.lifetime.start.p0(i64 8, ptr %6) #12
  call void @llvm.lifetime.start.p0(i64 4, ptr %7) #12
  %9 = load ptr, ptr %4, align 8, !tbaa !13
  %10 = load ptr, ptr %9, align 8, !tbaa !16
  store ptr %10, ptr %6, align 8, !tbaa !16
  %11 = load ptr, ptr %6, align 8, !tbaa !16
  %12 = load ptr, ptr %5, align 8, !tbaa !16
  %13 = icmp uge ptr %11, %12
  br i1 %13, label %14, label %15

14:                                               ; preds = %2
  store i32 -1094995529, ptr %3, align 4
  store i32 1, ptr %8, align 4
  br label %23

15:                                               ; preds = %2
  %16 = load ptr, ptr %6, align 8, !tbaa !16
  %17 = getelementptr inbounds nuw i8, ptr %16, i32 1
  store ptr %17, ptr %6, align 8, !tbaa !16
  %18 = load i8, ptr %16, align 1, !tbaa !66
  %19 = zext i8 %18 to i32
  store i32 %19, ptr %7, align 4, !tbaa !11
  %20 = load ptr, ptr %6, align 8, !tbaa !16
  %21 = load ptr, ptr %4, align 8, !tbaa !13
  store ptr %20, ptr %21, align 8, !tbaa !16
  %22 = load i32, ptr %7, align 4, !tbaa !11
  store i32 %22, ptr %3, align 4
  store i32 1, ptr %8, align 4
  br label %23

23:                                               ; preds = %15, %14
  call void @llvm.lifetime.end.p0(i64 4, ptr %7) #12
  call void @llvm.lifetime.end.p0(i64 8, ptr %6) #12
  %24 = load i32, ptr %3, align 4
  ret i32 %24
}

; Function Attrs: nounwind uwtable
define internal void @new_data_packet(ptr noundef %0, i32 noundef %1, ptr noundef %2) #0 {
  %4 = alloca ptr, align 8
  %5 = alloca i32, align 4
  %6 = alloca ptr, align 8
  store ptr %0, ptr %4, align 8, !tbaa !16
  store i32 %1, ptr %5, align 4, !tbaa !11
  store ptr %2, ptr %6, align 8, !tbaa !164
  %7 = load ptr, ptr %6, align 8, !tbaa !164
  call void @av_packet_unref(ptr noundef %7)
  %8 = load ptr, ptr %4, align 8, !tbaa !16
  %9 = load ptr, ptr %6, align 8, !tbaa !164
  %10 = getelementptr inbounds nuw %struct.AVPacket, ptr %9, i32 0, i32 3
  store ptr %8, ptr %10, align 8, !tbaa !202
  %11 = load i32, ptr %5, align 4, !tbaa !11
  %12 = load ptr, ptr %6, align 8, !tbaa !164
  %13 = getelementptr inbounds nuw %struct.AVPacket, ptr %12, i32 0, i32 4
  store i32 %11, ptr %13, align 8, !tbaa !192
  ret void
}

; Function Attrs: nounwind uwtable
define internal i32 @parse_section_header(ptr noundef %0, ptr noundef %1, ptr noundef %2) #0 {
  %4 = alloca i32, align 4
  %5 = alloca ptr, align 8
  %6 = alloca ptr, align 8
  %7 = alloca ptr, align 8
  %8 = alloca i32, align 4
  %9 = alloca i32, align 4
  store ptr %0, ptr %5, align 8, !tbaa !121
  store ptr %1, ptr %6, align 8, !tbaa !13
  store ptr %2, ptr %7, align 8, !tbaa !16
  call void @llvm.lifetime.start.p0(i64 4, ptr %8) #12
  %10 = load ptr, ptr %6, align 8, !tbaa !13
  %11 = load ptr, ptr %7, align 8, !tbaa !16
  %12 = call i32 @get8(ptr noundef %10, ptr noundef %11)
  store i32 %12, ptr %8, align 4, !tbaa !11
  %13 = load i32, ptr %8, align 4, !tbaa !11
  %14 = icmp slt i32 %13, 0
  br i1 %14, label %15, label %17

15:                                               ; preds = %3
  %16 = load i32, ptr %8, align 4, !tbaa !11
  store i32 %16, ptr %4, align 4
  store i32 1, ptr %9, align 4
  br label %80

17:                                               ; preds = %3
  %18 = load i32, ptr %8, align 4, !tbaa !11
  %19 = trunc i32 %18 to i8
  %20 = load ptr, ptr %5, align 8, !tbaa !121
  %21 = getelementptr inbounds nuw %struct.SectionHeader, ptr %20, i32 0, i32 0
  store i8 %19, ptr %21, align 2, !tbaa !106
  %22 = load ptr, ptr %6, align 8, !tbaa !13
  %23 = load ptr, ptr %22, align 8, !tbaa !16
  %24 = getelementptr inbounds i8, ptr %23, i64 2
  store ptr %24, ptr %22, align 8, !tbaa !16
  %25 = load ptr, ptr %6, align 8, !tbaa !13
  %26 = load ptr, ptr %7, align 8, !tbaa !16
  %27 = call i32 @get16(ptr noundef %25, ptr noundef %26)
  store i32 %27, ptr %8, align 4, !tbaa !11
  %28 = load i32, ptr %8, align 4, !tbaa !11
  %29 = icmp slt i32 %28, 0
  br i1 %29, label %30, label %32

30:                                               ; preds = %17
  %31 = load i32, ptr %8, align 4, !tbaa !11
  store i32 %31, ptr %4, align 4
  store i32 1, ptr %9, align 4
  br label %80

32:                                               ; preds = %17
  %33 = load i32, ptr %8, align 4, !tbaa !11
  %34 = trunc i32 %33 to i16
  %35 = load ptr, ptr %5, align 8, !tbaa !121
  %36 = getelementptr inbounds nuw %struct.SectionHeader, ptr %35, i32 0, i32 1
  store i16 %34, ptr %36, align 2, !tbaa !127
  %37 = load ptr, ptr %6, align 8, !tbaa !13
  %38 = load ptr, ptr %7, align 8, !tbaa !16
  %39 = call i32 @get8(ptr noundef %37, ptr noundef %38)
  store i32 %39, ptr %8, align 4, !tbaa !11
  %40 = load i32, ptr %8, align 4, !tbaa !11
  %41 = icmp slt i32 %40, 0
  br i1 %41, label %42, label %44

42:                                               ; preds = %32
  %43 = load i32, ptr %8, align 4, !tbaa !11
  store i32 %43, ptr %4, align 4
  store i32 1, ptr %9, align 4
  br label %80

44:                                               ; preds = %32
  %45 = load i32, ptr %8, align 4, !tbaa !11
  %46 = ashr i32 %45, 1
  %47 = and i32 %46, 31
  %48 = trunc i32 %47 to i8
  %49 = load ptr, ptr %5, align 8, !tbaa !121
  %50 = getelementptr inbounds nuw %struct.SectionHeader, ptr %49, i32 0, i32 2
  store i8 %48, ptr %50, align 2, !tbaa !208
  %51 = load i32, ptr %8, align 4, !tbaa !11
  %52 = and i32 %51, 1
  %53 = trunc i32 %52 to i8
  %54 = load ptr, ptr %5, align 8, !tbaa !121
  %55 = getelementptr inbounds nuw %struct.SectionHeader, ptr %54, i32 0, i32 3
  store i8 %53, ptr %55, align 1, !tbaa !123
  %56 = load ptr, ptr %6, align 8, !tbaa !13
  %57 = load ptr, ptr %7, align 8, !tbaa !16
  %58 = call i32 @get8(ptr noundef %56, ptr noundef %57)
  store i32 %58, ptr %8, align 4, !tbaa !11
  %59 = load i32, ptr %8, align 4, !tbaa !11
  %60 = icmp slt i32 %59, 0
  br i1 %60, label %61, label %63

61:                                               ; preds = %44
  %62 = load i32, ptr %8, align 4, !tbaa !11
  store i32 %62, ptr %4, align 4
  store i32 1, ptr %9, align 4
  br label %80

63:                                               ; preds = %44
  %64 = load i32, ptr %8, align 4, !tbaa !11
  %65 = trunc i32 %64 to i8
  %66 = load ptr, ptr %5, align 8, !tbaa !121
  %67 = getelementptr inbounds nuw %struct.SectionHeader, ptr %66, i32 0, i32 4
  store i8 %65, ptr %67, align 2, !tbaa !209
  %68 = load ptr, ptr %6, align 8, !tbaa !13
  %69 = load ptr, ptr %7, align 8, !tbaa !16
  %70 = call i32 @get8(ptr noundef %68, ptr noundef %69)
  store i32 %70, ptr %8, align 4, !tbaa !11
  %71 = load i32, ptr %8, align 4, !tbaa !11
  %72 = icmp slt i32 %71, 0
  br i1 %72, label %73, label %75

73:                                               ; preds = %63
  %74 = load i32, ptr %8, align 4, !tbaa !11
  store i32 %74, ptr %4, align 4
  store i32 1, ptr %9, align 4
  br label %80

75:                                               ; preds = %63
  %76 = load i32, ptr %8, align 4, !tbaa !11
  %77 = trunc i32 %76 to i8
  %78 = load ptr, ptr %5, align 8, !tbaa !121
  %79 = getelementptr inbounds nuw %struct.SectionHeader, ptr %78, i32 0, i32 5
  store i8 %77, ptr %79, align 1, !tbaa !210
  store i32 0, ptr %4, align 4
  store i32 1, ptr %9, align 4
  br label %80

80:                                               ; preds = %75, %73, %61, %42, %30, %15
  call void @llvm.lifetime.end.p0(i64 4, ptr %8) #12
  %81 = load i32, ptr %4, align 4
  ret i32 %81
}

; Function Attrs: nounwind uwtable
define internal void @eit_cb(ptr noundef %0, ptr noundef %1, i32 noundef %2) #0 {
  %4 = alloca ptr, align 8
  %5 = alloca ptr, align 8
  %6 = alloca i32, align 4
  %7 = alloca ptr, align 8
  %8 = alloca ptr, align 8
  %9 = alloca ptr, align 8
  %10 = alloca %struct.SectionHeader, align 2
  %11 = alloca ptr, align 8
  %12 = alloca i32, align 4
  store ptr %0, ptr %4, align 8, !tbaa !50
  store ptr %1, ptr %5, align 8, !tbaa !16
  store i32 %2, ptr %6, align 4, !tbaa !11
  call void @llvm.lifetime.start.p0(i64 8, ptr %7) #12
  %13 = load ptr, ptr %4, align 8, !tbaa !50
  %14 = getelementptr inbounds nuw %struct.MpegTSFilter, ptr %13, i32 0, i32 6
  %15 = getelementptr inbounds nuw %struct.MpegTSSectionFilter, ptr %14, i32 0, i32 8
  %16 = load ptr, ptr %15, align 8, !tbaa !66
  store ptr %16, ptr %7, align 8, !tbaa !20
  call void @llvm.lifetime.start.p0(i64 8, ptr %8) #12
  call void @llvm.lifetime.start.p0(i64 8, ptr %9) #12
  call void @llvm.lifetime.start.p0(i64 8, ptr %10) #12
  call void @llvm.lifetime.start.p0(i64 8, ptr %11) #12
  store ptr %10, ptr %11, align 8, !tbaa !121
  %17 = load ptr, ptr %7, align 8, !tbaa !20
  %18 = getelementptr inbounds nuw %struct.MpegTSContext, ptr %17, i32 0, i32 25
  %19 = load ptr, ptr %18, align 8, !tbaa !158
  %20 = icmp ne ptr %19, null
  br i1 %20, label %50, label %21

21:                                               ; preds = %3
  %22 = load ptr, ptr %7, align 8, !tbaa !20
  %23 = getelementptr inbounds nuw %struct.MpegTSContext, ptr %22, i32 0, i32 1
  %24 = load ptr, ptr %23, align 8, !tbaa !72
  %25 = call ptr @avformat_new_stream(ptr noundef %24, ptr noundef null)
  %26 = load ptr, ptr %7, align 8, !tbaa !20
  %27 = getelementptr inbounds nuw %struct.MpegTSContext, ptr %26, i32 0, i32 25
  store ptr %25, ptr %27, align 8, !tbaa !158
  %28 = load ptr, ptr %7, align 8, !tbaa !20
  %29 = getelementptr inbounds nuw %struct.MpegTSContext, ptr %28, i32 0, i32 25
  %30 = load ptr, ptr %29, align 8, !tbaa !158
  %31 = icmp ne ptr %30, null
  br i1 %31, label %33, label %32

32:                                               ; preds = %21
  store i32 1, ptr %12, align 4
  br label %123

33:                                               ; preds = %21
  %34 = load ptr, ptr %7, align 8, !tbaa !20
  %35 = getelementptr inbounds nuw %struct.MpegTSContext, ptr %34, i32 0, i32 25
  %36 = load ptr, ptr %35, align 8, !tbaa !158
  %37 = getelementptr inbounds nuw %struct.AVStream, ptr %36, i32 0, i32 2
  store i32 18, ptr %37, align 4, !tbaa !76
  %38 = load ptr, ptr %7, align 8, !tbaa !20
  %39 = getelementptr inbounds nuw %struct.MpegTSContext, ptr %38, i32 0, i32 25
  %40 = load ptr, ptr %39, align 8, !tbaa !158
  %41 = getelementptr inbounds nuw %struct.AVStream, ptr %40, i32 0, i32 3
  %42 = load ptr, ptr %41, align 8, !tbaa !24
  %43 = getelementptr inbounds nuw %struct.AVCodecParameters, ptr %42, i32 0, i32 0
  store i32 2, ptr %43, align 8, !tbaa !64
  %44 = load ptr, ptr %7, align 8, !tbaa !20
  %45 = getelementptr inbounds nuw %struct.MpegTSContext, ptr %44, i32 0, i32 25
  %46 = load ptr, ptr %45, align 8, !tbaa !158
  %47 = getelementptr inbounds nuw %struct.AVStream, ptr %46, i32 0, i32 3
  %48 = load ptr, ptr %47, align 8, !tbaa !24
  %49 = getelementptr inbounds nuw %struct.AVCodecParameters, ptr %48, i32 0, i32 1
  store i32 98306, ptr %49, align 4, !tbaa !34
  br label %50

50:                                               ; preds = %33, %3
  %51 = load ptr, ptr %7, align 8, !tbaa !20
  %52 = getelementptr inbounds nuw %struct.MpegTSContext, ptr %51, i32 0, i32 25
  %53 = load ptr, ptr %52, align 8, !tbaa !158
  %54 = getelementptr inbounds nuw %struct.AVStream, ptr %53, i32 0, i32 10
  %55 = load i32, ptr %54, align 4, !tbaa !159
  %56 = icmp eq i32 %55, 48
  br i1 %56, label %57, label %58

57:                                               ; preds = %50
  store i32 1, ptr %12, align 4
  br label %123

58:                                               ; preds = %50
  %59 = load ptr, ptr %5, align 8, !tbaa !16
  %60 = load i32, ptr %6, align 4, !tbaa !11
  %61 = sext i32 %60 to i64
  %62 = getelementptr inbounds i8, ptr %59, i64 %61
  %63 = getelementptr inbounds i8, ptr %62, i64 -4
  store ptr %63, ptr %9, align 8, !tbaa !16
  %64 = load ptr, ptr %5, align 8, !tbaa !16
  store ptr %64, ptr %8, align 8, !tbaa !16
  %65 = load ptr, ptr %11, align 8, !tbaa !121
  %66 = load ptr, ptr %9, align 8, !tbaa !16
  %67 = call i32 @parse_section_header(ptr noundef %65, ptr noundef %8, ptr noundef %66)
  %68 = icmp slt i32 %67, 0
  br i1 %68, label %69, label %70

69:                                               ; preds = %58
  store i32 1, ptr %12, align 4
  br label %123

70:                                               ; preds = %58
  %71 = load ptr, ptr %11, align 8, !tbaa !121
  %72 = getelementptr inbounds nuw %struct.SectionHeader, ptr %71, i32 0, i32 0
  %73 = load i8, ptr %72, align 2, !tbaa !106
  %74 = zext i8 %73 to i32
  %75 = icmp slt i32 %74, 78
  br i1 %75, label %82, label %76

76:                                               ; preds = %70
  %77 = load ptr, ptr %11, align 8, !tbaa !121
  %78 = getelementptr inbounds nuw %struct.SectionHeader, ptr %77, i32 0, i32 0
  %79 = load i8, ptr %78, align 2, !tbaa !106
  %80 = zext i8 %79 to i32
  %81 = icmp sgt i32 %80, 111
  br i1 %81, label %82, label %83

82:                                               ; preds = %76, %70
  store i32 1, ptr %12, align 4
  br label %123

83:                                               ; preds = %76
  %84 = load ptr, ptr %7, align 8, !tbaa !20
  %85 = getelementptr inbounds nuw %struct.MpegTSContext, ptr %84, i32 0, i32 1
  %86 = load ptr, ptr %85, align 8, !tbaa !72
  %87 = load ptr, ptr %11, align 8, !tbaa !121
  %88 = getelementptr inbounds nuw %struct.SectionHeader, ptr %87, i32 0, i32 0
  %89 = load i8, ptr %88, align 2, !tbaa !106
  %90 = zext i8 %89 to i32
  call void (ptr, i32, ptr, ...) @av_log(ptr noundef %86, i32 noundef 56, ptr noundef @.str.57, i32 noundef %90)
  %91 = load ptr, ptr %11, align 8, !tbaa !121
  %92 = getelementptr inbounds nuw %struct.SectionHeader, ptr %91, i32 0, i32 1
  %93 = load i16, ptr %92, align 2, !tbaa !127
  %94 = zext i16 %93 to i32
  %95 = icmp eq i32 %94, 65535
  br i1 %95, label %96, label %100

96:                                               ; preds = %83
  %97 = load ptr, ptr %7, align 8, !tbaa !20
  %98 = getelementptr inbounds nuw %struct.MpegTSContext, ptr %97, i32 0, i32 1
  %99 = load ptr, ptr %98, align 8, !tbaa !72
  call void (ptr, i32, ptr, ...) @av_log(ptr noundef %99, i32 noundef 56, ptr noundef @.str.58)
  store i32 1, ptr %12, align 4
  br label %123

100:                                              ; preds = %83
  %101 = load ptr, ptr %7, align 8, !tbaa !20
  %102 = getelementptr inbounds nuw %struct.MpegTSContext, ptr %101, i32 0, i32 10
  %103 = load ptr, ptr %102, align 8, !tbaa !160
  %104 = icmp ne ptr %103, null
  br i1 %104, label %106, label %105

105:                                              ; preds = %100
  store i32 1, ptr %12, align 4
  br label %123

106:                                              ; preds = %100
  %107 = load ptr, ptr %5, align 8, !tbaa !16
  %108 = load i32, ptr %6, align 4, !tbaa !11
  %109 = load ptr, ptr %7, align 8, !tbaa !20
  %110 = getelementptr inbounds nuw %struct.MpegTSContext, ptr %109, i32 0, i32 10
  %111 = load ptr, ptr %110, align 8, !tbaa !160
  call void @new_data_packet(ptr noundef %107, i32 noundef %108, ptr noundef %111)
  %112 = load ptr, ptr %7, align 8, !tbaa !20
  %113 = getelementptr inbounds nuw %struct.MpegTSContext, ptr %112, i32 0, i32 25
  %114 = load ptr, ptr %113, align 8, !tbaa !158
  %115 = getelementptr inbounds nuw %struct.AVStream, ptr %114, i32 0, i32 1
  %116 = load i32, ptr %115, align 8, !tbaa !161
  %117 = load ptr, ptr %7, align 8, !tbaa !20
  %118 = getelementptr inbounds nuw %struct.MpegTSContext, ptr %117, i32 0, i32 10
  %119 = load ptr, ptr %118, align 8, !tbaa !160
  %120 = getelementptr inbounds nuw %struct.AVPacket, ptr %119, i32 0, i32 5
  store i32 %116, ptr %120, align 4, !tbaa !162
  %121 = load ptr, ptr %7, align 8, !tbaa !20
  %122 = getelementptr inbounds nuw %struct.MpegTSContext, ptr %121, i32 0, i32 9
  store i32 1, ptr %122, align 8, !tbaa !163
  store i32 0, ptr %12, align 4
  br label %123

123:                                              ; preds = %106, %105, %96, %82, %69, %57, %32
  call void @llvm.lifetime.end.p0(i64 8, ptr %11) #12
  call void @llvm.lifetime.end.p0(i64 8, ptr %10) #12
  call void @llvm.lifetime.end.p0(i64 8, ptr %9) #12
  call void @llvm.lifetime.end.p0(i64 8, ptr %8) #12
  call void @llvm.lifetime.end.p0(i64 8, ptr %7) #12
  %124 = load i32, ptr %12, align 4
  switch i32 %124, label %126 [
    i32 0, label %125
    i32 1, label %125
  ]

125:                                              ; preds = %123, %123
  ret void

126:                                              ; preds = %123
  unreachable
}