; Function Attrs: nounwind uwtable
define internal void @eit_cb(ptr noundef readonly captures(none) %0, ptr noundef %1, i32 noundef %2) #0 {
  %4 = getelementptr inbounds nuw i8, ptr %0, i64 80
  %5 = load ptr, ptr %4, align 8, !tbaa !9
  %6 = getelementptr inbounds nuw i8, ptr %5, i64 73872
  %7 = load ptr, ptr %6, align 8, !tbaa !153
  %.not = icmp eq ptr %7, null
  br i1 %.not, label %8, label %17

8:                                                ; preds = %3
  %9 = getelementptr inbounds nuw i8, ptr %5, i64 8
  %10 = load ptr, ptr %9, align 8, !tbaa !57
  %11 = tail call ptr @avformat_new_stream(ptr noundef %10, ptr noundef null) #12
  store ptr %11, ptr %6, align 8, !tbaa !153
  %.not28 = icmp eq ptr %11, null
  br i1 %.not28, label %parse_section_header.exit.thread, label %12

12:                                               ; preds = %8
  %13 = getelementptr inbounds nuw i8, ptr %11, i64 12
  store i32 18, ptr %13, align 4, !tbaa !78
  %14 = getelementptr inbounds nuw i8, ptr %11, i64 16
  %15 = load ptr, ptr %14, align 8, !tbaa !10
  store i32 2, ptr %15, align 8, !tbaa !37
  %16 = getelementptr inbounds nuw i8, ptr %15, i64 4
  store i32 98306, ptr %16, align 4, !tbaa !21
  br label %17

17:                                               ; preds = %12, %3
  %18 = phi ptr [ %11, %12 ], [ %7, %3 ]
  %19 = getelementptr inbounds nuw i8, ptr %18, i64 68
  %20 = load i32, ptr %19, align 4, !tbaa !154
  %21 = icmp eq i32 %20, 48
  br i1 %21, label %parse_section_header.exit.thread, label %22

22:                                               ; preds = %17
  %23 = sext i32 %2 to i64
  %24 = getelementptr i8, ptr %1, i64 %23
  %.ptr35 = getelementptr i8, ptr %24, i64 -4
  %.not.i.i = icmp ult ptr %1, %.ptr35
  br i1 %.not.i.i, label %get8.exit.i, label %parse_section_header.exit.thread

get8.exit.i:                                      ; preds = %22
  %25 = load i8, ptr %1, align 1, !tbaa !9
  %26 = getelementptr inbounds nuw i8, ptr %1, i64 3
  %27 = ptrtoint ptr %.ptr35 to i64
  %28 = ptrtoint ptr %26 to i64
  %29 = sub i64 %27, %28
  %30 = icmp slt i64 %29, 2
  br i1 %30, label %parse_section_header.exit.thread, label %get16.exit.i

get16.exit.i:                                     ; preds = %get8.exit.i
  %31 = load i16, ptr %26, align 1, !tbaa !9
  %.not.i43.i = icmp sgt i32 %2, 9
  br i1 %.not.i43.i, label %get8.exit45.i, label %parse_section_header.exit.thread

get8.exit45.i:                                    ; preds = %get16.exit.i
  %32 = getelementptr inbounds nuw i8, ptr %1, i64 6
  %.not.i46.i = icmp uge ptr %32, %.ptr35
  %33 = getelementptr inbounds nuw i8, ptr %1, i64 7
  %.not.i49.i = icmp uge ptr %33, %.ptr35
  %or.cond34.not37 = select i1 %.not.i46.i, i1 true, i1 %.not.i49.i
  %34 = add i8 %25, -112
  %or.cond = icmp ult i8 %34, -34
  %or.cond36 = select i1 %or.cond34.not37, i1 true, i1 %or.cond
  br i1 %or.cond36, label %parse_section_header.exit.thread, label %35

35:                                               ; preds = %get8.exit45.i
  %36 = zext nneg i8 %25 to i32
  %37 = getelementptr inbounds nuw i8, ptr %5, i64 8
  %38 = load ptr, ptr %37, align 8, !tbaa !57
  tail call void (ptr, i32, ptr, ...) @av_log(ptr noundef %38, i32 noundef 56, ptr noundef nonnull @.str.57, i32 noundef %36) #12
  %39 = icmp eq i16 %31, -1
  br i1 %39, label %40, label %42

40:                                               ; preds = %35
  %41 = load ptr, ptr %37, align 8, !tbaa !57
  tail call void (ptr, i32, ptr, ...) @av_log(ptr noundef %41, i32 noundef 56, ptr noundef nonnull @.str.58) #12
  br label %parse_section_header.exit.thread

42:                                               ; preds = %35
  %43 = getelementptr inbounds nuw i8, ptr %5, i64 72
  %44 = load ptr, ptr %43, align 8, !tbaa !155
  %.not29 = icmp eq ptr %44, null
  br i1 %.not29, label %parse_section_header.exit.thread, label %45

45:                                               ; preds = %42
  tail call void @av_packet_unref(ptr noundef nonnull %44) #12
  %46 = getelementptr inbounds nuw i8, ptr %44, i64 24
  store ptr %1, ptr %46, align 8, !tbaa !156
  %47 = getelementptr inbounds nuw i8, ptr %44, i64 32
  store i32 %2, ptr %47, align 8, !tbaa !157
  %48 = load ptr, ptr %6, align 8, !tbaa !153
  %49 = getelementptr inbounds nuw i8, ptr %48, i64 8
  %50 = load i32, ptr %49, align 8, !tbaa !158
  %51 = load ptr, ptr %43, align 8, !tbaa !155
  %52 = getelementptr inbounds nuw i8, ptr %51, i64 36
  store i32 %50, ptr %52, align 4, !tbaa !159
  %53 = getelementptr inbounds nuw i8, ptr %5, i64 64
  store i32 1, ptr %53, align 8, !tbaa !160
  br label %parse_section_header.exit.thread

parse_section_header.exit.thread:                 ; preds = %get8.exit45.i, %get16.exit.i, %get8.exit.i, %22, %42, %17, %8, %45, %40
  ret void
}